; ModuleID = 'source-C-CXX/27/137.c'
source_filename = "source-C-CXX/27/137.c"
target datalayout = "e-m:e-p270:32:32-p271:32:32-p272:64:64-i64:64-f80:128-n8:16:32:64-S128"
target triple = "x86_64-pc-linux-gnu"

@.str = private unnamed_addr constant [3 x i8] c"%d\00", align 1
@.str.1 = private unnamed_addr constant [4 x i8] c",%d\00", align 1

; Function Attrs: nounwind sspstrong uwtable
define dso_local void @main() local_unnamed_addr #0 {
  %1 = alloca [1000 x i8], align 16
  %2 = alloca [300 x i32], align 16
  %3 = getelementptr inbounds [1000 x i8], [1000 x i8]* %1, i64 0, i64 0
  call void @llvm.lifetime.start.p0i8(i64 1000, i8* nonnull %3) #4
  %4 = bitcast [300 x i32]* %2 to i8*
  call void @llvm.lifetime.start.p0i8(i64 1200, i8* nonnull %4) #4
  %5 = call i32 (i8*, ...) bitcast (i32 (...)* @gets to i32 (i8*, ...)*)(i8* nonnull %3) #4
  %6 = load i8, i8* %3, align 16, !tbaa !5
  %7 = icmp eq i8 %6, 0
  br i1 %7, label %30, label %8

8:                                                ; preds = %0, %23
  %9 = phi i64 [ %26, %23 ], [ 0, %0 ]
  %10 = phi i8 [ %28, %23 ], [ %6, %0 ]
  %11 = phi i32 [ %25, %23 ], [ 0, %0 ]
  %12 = phi i32 [ %24, %23 ], [ 0, %0 ]
  %13 = icmp eq i8 %10, 32
  %14 = icmp eq i32 %12, 0
  %15 = select i1 %13, i1 %14, i1 false
  br i1 %15, label %23, label %16

16:                                               ; preds = %8
  br i1 %13, label %17, label %21

17:                                               ; preds = %16
  %18 = sext i32 %11 to i64
  %19 = getelementptr inbounds [300 x i32], [300 x i32]* %2, i64 0, i64 %18
  store i32 %12, i32* %19, align 4, !tbaa !8
  %20 = add nsw i32 %11, 1
  br label %23

21:                                               ; preds = %16
  %22 = add nsw i32 %12, 1
  br label %23

23:                                               ; preds = %8, %21, %17
  %24 = phi i32 [ 0, %8 ], [ 0, %17 ], [ %22, %21 ]
  %25 = phi i32 [ %11, %8 ], [ %20, %17 ], [ %11, %21 ]
  %26 = add nuw i64 %9, 1
  %27 = getelementptr inbounds [1000 x i8], [1000 x i8]* %1, i64 0, i64 %26
  %28 = load i8, i8* %27, align 1, !tbaa !5
  %29 = icmp eq i8 %28, 0
  br i1 %29, label %30, label %8, !llvm.loop !10

30:                                               ; preds = %23, %0
  %31 = phi i32 [ 0, %0 ], [ %24, %23 ]
  %32 = phi i32 [ 0, %0 ], [ %25, %23 ]
  %33 = sext i32 %32 to i64
  %34 = getelementptr inbounds [300 x i32], [300 x i32]* %2, i64 0, i64 %33
  store i32 %31, i32* %34, align 4, !tbaa !8
  %35 = getelementptr inbounds [300 x i32], [300 x i32]* %2, i64 0, i64 0
  %36 = load i32, i32* %35, align 16, !tbaa !8
  %37 = call i32 (i8*, ...) @printf(i8* nonnull dereferenceable(1) getelementptr inbounds ([3 x i8], [3 x i8]* @.str, i64 0, i64 0), i32 %36)
  %38 = icmp slt i32 %32, 1
  br i1 %38, label %49, label %39

39:                                               ; preds = %30
  %40 = add nuw i32 %32, 1
  %41 = zext i32 %40 to i64
  br label %42

42:                                               ; preds = %39, %42
  %43 = phi i64 [ 1, %39 ], [ %47, %42 ]
  %44 = getelementptr inbounds [300 x i32], [300 x i32]* %2, i64 0, i64 %43
  %45 = load i32, i32* %44, align 4, !tbaa !8
  %46 = call i32 (i8*, ...) @printf(i8* nonnull dereferenceable(1) getelementptr inbounds ([4 x i8], [4 x i8]* @.str.1, i64 0, i64 0), i32 %45)
  %47 = add nuw nsw i64 %43, 1
  %48 = icmp eq i64 %47, %41
  br i1 %48, label %49, label %42, !llvm.loop !12

49:                                               ; preds = %42, %30
  call void @llvm.lifetime.end.p0i8(i64 1200, i8* nonnull %4) #4
  call void @llvm.lifetime.end.p0i8(i64 1000, i8* nonnull %3) #4
  ret void
}

; Function Attrs: argmemonly mustprogress nofree nosync nounwind willreturn
declare void @llvm.lifetime.start.p0i8(i64 immarg, i8* nocapture) #1

declare i32 @gets(...) local_unnamed_addr #2

; Function Attrs: nofree nounwind
declare noundef i32 @printf(i8* nocapture noundef readonly, ...) local_unnamed_addr #3

; Function Attrs: argmemonly mustprogress nofree nosync nounwind willreturn
declare void @llvm.lifetime.end.p0i8(i64 immarg, i8* nocapture) #1


!llvm.module.flags = !{!0, !1, !2, !3}
!llvm.ident = !{!4}

!0 = !{i32 1, !"wchar_size", i32 4}
!1 = !{i32 7, !"PIC Level", i32 2}
!2 = !{i32 7, !"PIE Level", i32 2}
!3 = !{i32 7, !"uwtable", i32 1}
!4 = !{!"clang version 13.0.0"}
!5 = !{!6, !6, i64 0}
!6 = !{!"omnipotent char", !7, i64 0}
!7 = !{!"Simple C/C++ TBAA"}
!8 = !{!9, !9, i64 0}
!9 = !{!"int", !6, i64 0}
!10 = distinct !{!10, !11}
!11 = !{!"llvm.loop.mustprogress"}
!12 = distinct !{!12, !11}
